target datalayout = "e-m:e-p270:32:32-p271:32:32-p272:64:64-i64:64-i128:128-f80:128-n8:16:32:64-S128"
target triple = "x86_64-pc-linux-gnu"

%struct.BackendGlobalData = type <{ ptr, ptr, i8, i8, i8, i8, i8, i8, i8, i8, i8, [3 x i8], i32, ptr, ptr, ptr, ptr, ptr, ptr, ptr, ptr, ptr, ptr, ptr, ptr, ptr, i32, %struct.jvmtiCapabilities, i8, [3 x i8], %struct.jvmtiEventCallbacks, ptr, ptr, ptr, ptr, ptr, ptr, ptr, i32, [4 x i8], ptr, i64, i32, [4 x i8], ptr, i32, i32, i8, i8, [6 x i8] }>
%struct.jvmtiCapabilities = type { i64, i64 }
%struct.jvmtiEventCallbacks = type { ptr, ptr, ptr, ptr, ptr, ptr, ptr, ptr, ptr, ptr, ptr, ptr, ptr, ptr, ptr, ptr, ptr, ptr, ptr, ptr, ptr, ptr, ptr, ptr, ptr, ptr, ptr, ptr, ptr, ptr, ptr, ptr, ptr, ptr, ptr, ptr, ptr, ptr, ptr }
%struct.jvmtiInterface_1_ = type { ptr, ptr, ptr, ptr, ptr, ptr, ptr, ptr, ptr, ptr, ptr, ptr, ptr, ptr, ptr, ptr, ptr, ptr, ptr, ptr, ptr, ptr, ptr, ptr, ptr, ptr, ptr, ptr, ptr, ptr, ptr, ptr, ptr, ptr, ptr, ptr, ptr, ptr, ptr, ptr, ptr, ptr, ptr, ptr, ptr, ptr, ptr, ptr, ptr, ptr, ptr, ptr, ptr, ptr, ptr, ptr, ptr, ptr, ptr, ptr, ptr, ptr, ptr, ptr, ptr, ptr, ptr, ptr, ptr, ptr, ptr, ptr, ptr, ptr, ptr, ptr, ptr, ptr, ptr, ptr, ptr, ptr, ptr, ptr, ptr, ptr, ptr, ptr, ptr, ptr, ptr, ptr, ptr, ptr, ptr, ptr, ptr, ptr, ptr, ptr, ptr, ptr, ptr, ptr, ptr, ptr, ptr, ptr, ptr, ptr, ptr, ptr, ptr, ptr, ptr, ptr, ptr, ptr, ptr, ptr, ptr, ptr, ptr, ptr, ptr, ptr, ptr, ptr, ptr, ptr, ptr, ptr, ptr, ptr, ptr, ptr, ptr, ptr, ptr, ptr, ptr, ptr, ptr, ptr, ptr, ptr, ptr, ptr, ptr, ptr, ptr, ptr, ptr, ptr, ptr, ptr }
%struct.JNINativeInterface_ = type { ptr, ptr, ptr, ptr, ptr, ptr, ptr, ptr, ptr, ptr, ptr, ptr, ptr, ptr, ptr, ptr, ptr, ptr, ptr, ptr, ptr, ptr, ptr, ptr, ptr, ptr, ptr, ptr, ptr, ptr, ptr, ptr, ptr, ptr, ptr, ptr, ptr, ptr, ptr, ptr, ptr, ptr, ptr, ptr, ptr, ptr, ptr, ptr, ptr, ptr, ptr, ptr, ptr, ptr, ptr, ptr, ptr, ptr, ptr, ptr, ptr, ptr, ptr, ptr, ptr, ptr, ptr, ptr, ptr, ptr, ptr, ptr, ptr, ptr, ptr, ptr, ptr, ptr, ptr, ptr, ptr, ptr, ptr, ptr, ptr, ptr, ptr, ptr, ptr, ptr, ptr, ptr, ptr, ptr, ptr, ptr, ptr, ptr, ptr, ptr, ptr, ptr, ptr, ptr, ptr, ptr, ptr, ptr, ptr, ptr, ptr, ptr, ptr, ptr, ptr, ptr, ptr, ptr, ptr, ptr, ptr, ptr, ptr, ptr, ptr, ptr, ptr, ptr, ptr, ptr, ptr, ptr, ptr, ptr, ptr, ptr, ptr, ptr, ptr, ptr, ptr, ptr, ptr, ptr, ptr, ptr, ptr, ptr, ptr, ptr, ptr, ptr, ptr, ptr, ptr, ptr, ptr, ptr, ptr, ptr, ptr, ptr, ptr, ptr, ptr, ptr, ptr, ptr, ptr, ptr, ptr, ptr, ptr, ptr, ptr, ptr, ptr, ptr, ptr, ptr, ptr, ptr, ptr, ptr, ptr, ptr, ptr, ptr, ptr, ptr, ptr, ptr, ptr, ptr, ptr, ptr, ptr, ptr, ptr, ptr, ptr, ptr, ptr, ptr, ptr, ptr, ptr, ptr, ptr, ptr, ptr, ptr, ptr, ptr, ptr, ptr, ptr, ptr, ptr, ptr, ptr, ptr, ptr, ptr, ptr, ptr, ptr, ptr, ptr, ptr, ptr, ptr, ptr, ptr, ptr }
%struct.jvmtiFrameInfo = type { ptr, i64 }

@.str.6 = private unnamed_addr constant [14 x i8] c"GetFrameCount\00", align 1
@gdata = external global ptr, align 8
@.str.16 = private unnamed_addr constant [6 x i8] c"JVMTI\00", align 1
@.str.17 = private unnamed_addr constant [62 x i8] c"src/jdk.jdwp.agent/share/native/libjdwp/ThreadReferenceImpl.c\00", align 1
@.str.18 = private unnamed_addr constant [5 x i8] c"%s()\00", align 1
@.str.20 = private unnamed_addr constant [4 x i8] c"JNI\00", align 1
@.str.21 = private unnamed_addr constant [14 x i8] c"PopLocalFrame\00", align 1
@.str.22 = private unnamed_addr constant [14 x i8] c"GetStackTrace\00", align 1

; Function Attrs: nounwind uwtable
define internal zeroext i8 @frames(ptr noundef %0, ptr noundef %1) #0 {
  %3 = alloca i8, align 1
  %4 = alloca ptr, align 8
  %5 = alloca ptr, align 8
  %6 = alloca i32, align 4
  %7 = alloca i32, align 4
  %8 = alloca i32, align 4
  %9 = alloca i32, align 4
  %10 = alloca ptr, align 8
  %11 = alloca ptr, align 8
  %12 = alloca i32, align 4
  %13 = alloca i32, align 4
  %14 = alloca ptr, align 8
  %15 = alloca ptr, align 8
  %16 = alloca i64, align 8
  store ptr %0, ptr %4, align 8
  store ptr %1, ptr %5, align 8
  %17 = call ptr @getEnv()
  store ptr %17, ptr %10, align 8
  %18 = load ptr, ptr %10, align 8
  %19 = load ptr, ptr %4, align 8
  %20 = call ptr @inStream_readThreadRef(ptr noundef %18, ptr noundef %19)
  store ptr %20, ptr %11, align 8
  %21 = load ptr, ptr %4, align 8
  %22 = call zeroext i16 @inStream_error(ptr noundef %21)
  %23 = icmp ne i16 %22, 0
  br i1 %23, label %24, label %25

24:                                               ; preds = %2
  store i8 1, ptr %3, align 1
  br label %225

25:                                               ; preds = %2
  %26 = load ptr, ptr %4, align 8
  %27 = call i32 @inStream_readInt(ptr noundef %26)
  store i32 %27, ptr %12, align 4
  %28 = load ptr, ptr %4, align 8
  %29 = call zeroext i16 @inStream_error(ptr noundef %28)
  %30 = icmp ne i16 %29, 0
  br i1 %30, label %31, label %32

31:                                               ; preds = %25
  store i8 1, ptr %3, align 1
  br label %225

32:                                               ; preds = %25
  %33 = load ptr, ptr %4, align 8
  %34 = call i32 @inStream_readInt(ptr noundef %33)
  store i32 %34, ptr %13, align 4
  %35 = load ptr, ptr %4, align 8
  %36 = call zeroext i16 @inStream_error(ptr noundef %35)
  %37 = icmp ne i16 %36, 0
  br i1 %37, label %38, label %39

38:                                               ; preds = %32
  store i8 1, ptr %3, align 1
  br label %225

39:                                               ; preds = %32
  %40 = load ptr, ptr %11, align 8
  %41 = call zeroext i8 @threadControl_isDebugThread(ptr noundef %40)
  %42 = icmp ne i8 %41, 0
  br i1 %42, label %43, label %45

43:                                               ; preds = %39
  %44 = load ptr, ptr %5, align 8
  call void @outStream_setError(ptr noundef %44, i16 noundef zeroext 10)
  store i8 1, ptr %3, align 1
  br label %225

45:                                               ; preds = %39
  %46 = load ptr, ptr %5, align 8
  %47 = load ptr, ptr %11, align 8
  %48 = call zeroext i8 @validateSuspendedThread(ptr noundef %46, ptr noundef %47)
  %49 = icmp ne i8 %48, 0
  br i1 %49, label %51, label %50

50:                                               ; preds = %45
  store i8 1, ptr %3, align 1
  br label %225

51:                                               ; preds = %45
  %52 = load ptr, ptr @gdata, align 8
  %53 = getelementptr inbounds %struct.BackendGlobalData, ptr %52, i32 0, i32 38
  %54 = load i32, ptr %53, align 8
  %55 = and i32 %54, 4
  %56 = icmp ne i32 %55, 0
  br i1 %56, label %57, label %58

57:                                               ; preds = %51
  call void @log_message_begin(ptr noundef @.str.16, ptr noundef @.str.17, i32 noundef 250)
  call void (ptr, ...) @log_message_end(ptr noundef @.str.18, ptr noundef @.str.6)
  br label %59

58:                                               ; preds = %51
  br label %59

59:                                               ; preds = %58, %57
  %60 = load ptr, ptr @gdata, align 8
  %61 = getelementptr inbounds %struct.BackendGlobalData, ptr %60, i32 0, i32 0
  %62 = load ptr, ptr %61, align 8
  %63 = load ptr, ptr %62, align 8
  %64 = getelementptr inbounds %struct.jvmtiInterface_1_, ptr %63, i32 0, i32 15
  %65 = load ptr, ptr %64, align 8
  %66 = load ptr, ptr @gdata, align 8
  %67 = getelementptr inbounds %struct.BackendGlobalData, ptr %66, i32 0, i32 0
  %68 = load ptr, ptr %67, align 8
  %69 = load ptr, ptr %11, align 8
  %70 = call i32 %65(ptr noundef %68, ptr noundef %69, ptr noundef %8)
  store i32 %70, ptr %6, align 4
  %71 = load i32, ptr %6, align 4
  %72 = icmp ne i32 %71, 0
  br i1 %72, label %73, label %77

73:                                               ; preds = %59
  %74 = load ptr, ptr %5, align 8
  %75 = load i32, ptr %6, align 4
  %76 = call zeroext i16 @map2jdwpError(i32 noundef %75)
  call void @outStream_setError(ptr noundef %74, i16 noundef zeroext %76)
  store i8 1, ptr %3, align 1
  br label %225

77:                                               ; preds = %59
  %78 = load i32, ptr %13, align 4
  %79 = icmp eq i32 %78, -1
  br i1 %79, label %80, label %84

80:                                               ; preds = %77
  %81 = load i32, ptr %8, align 4
  %82 = load i32, ptr %12, align 4
  %83 = sub nsw i32 %81, %82
  store i32 %83, ptr %13, align 4
  br label %84

84:                                               ; preds = %80, %77
  %85 = load i32, ptr %13, align 4
  %86 = icmp eq i32 %85, 0
  br i1 %86, label %87, label %90

87:                                               ; preds = %84
  %88 = load ptr, ptr %5, align 8
  %89 = call zeroext i16 @outStream_writeInt(ptr noundef %88, i32 noundef 0)
  store i8 1, ptr %3, align 1
  br label %225

90:                                               ; preds = %84
  %91 = load i32, ptr %12, align 4
  %92 = icmp slt i32 %91, 0
  br i1 %92, label %98, label %93

93:                                               ; preds = %90
  %94 = load i32, ptr %12, align 4
  %95 = load i32, ptr %8, align 4
  %96 = sub nsw i32 %95, 1
  %97 = icmp sgt i32 %94, %96
  br i1 %97, label %98, label %100

98:                                               ; preds = %93, %90
  %99 = load ptr, ptr %5, align 8
  call void @outStream_setError(ptr noundef %99, i16 noundef zeroext 503)
  store i8 1, ptr %3, align 1
  br label %225

100:                                              ; preds = %93
  %101 = load i32, ptr %13, align 4
  %102 = icmp slt i32 %101, 0
  br i1 %102, label %109, label %103

103:                                              ; preds = %100
  %104 = load i32, ptr %13, align 4
  %105 = load i32, ptr %12, align 4
  %106 = add nsw i32 %104, %105
  %107 = load i32, ptr %8, align 4
  %108 = icmp sgt i32 %106, %107
  br i1 %108, label %109, label %111

109:                                              ; preds = %103, %100
  %110 = load ptr, ptr %5, align 8
  call void @outStream_setError(ptr noundef %110, i16 noundef zeroext 504)
  store i8 1, ptr %3, align 1
  br label %225

111:                                              ; preds = %103
  %112 = load ptr, ptr %5, align 8
  %113 = load i32, ptr %13, align 4
  %114 = call zeroext i16 @outStream_writeInt(ptr noundef %112, i32 noundef %113)
  %115 = load i32, ptr %13, align 4
  %116 = sext i32 %115 to i64
  %117 = mul i64 16, %116
  %118 = trunc i64 %117 to i32
  %119 = call ptr @jvmtiAllocate(i32 noundef %118)
  store ptr %119, ptr %14, align 8
  %120 = load ptr, ptr %14, align 8
  %121 = icmp eq ptr %120, null
  br i1 %121, label %122, label %124

122:                                              ; preds = %111
  %123 = load ptr, ptr %5, align 8
  call void @outStream_setError(ptr noundef %123, i16 noundef zeroext 110)
  store i8 1, ptr %3, align 1
  br label %225

124:                                              ; preds = %111
  %125 = load ptr, ptr @gdata, align 8
  %126 = getelementptr inbounds %struct.BackendGlobalData, ptr %125, i32 0, i32 38
  %127 = load i32, ptr %126, align 8
  %128 = and i32 %127, 4
  %129 = icmp ne i32 %128, 0
  br i1 %129, label %130, label %131

130:                                              ; preds = %124
  call void @log_message_begin(ptr noundef @.str.16, ptr noundef @.str.17, i32 noundef 285)
  call void (ptr, ...) @log_message_end(ptr noundef @.str.18, ptr noundef @.str.22)
  br label %132

131:                                              ; preds = %124
  br label %132

132:                                              ; preds = %131, %130
  %133 = load ptr, ptr @gdata, align 8
  %134 = getelementptr inbounds %struct.BackendGlobalData, ptr %133, i32 0, i32 0
  %135 = load ptr, ptr %134, align 8
  %136 = load ptr, ptr %135, align 8
  %137 = getelementptr inbounds %struct.jvmtiInterface_1_, ptr %136, i32 0, i32 103
  %138 = load ptr, ptr %137, align 8
  %139 = load ptr, ptr @gdata, align 8
  %140 = getelementptr inbounds %struct.BackendGlobalData, ptr %139, i32 0, i32 0
  %141 = load ptr, ptr %140, align 8
  %142 = load ptr, ptr %11, align 8
  %143 = load i32, ptr %12, align 4
  %144 = load i32, ptr %13, align 4
  %145 = load ptr, ptr %14, align 8
  %146 = call i32 %138(ptr noundef %141, ptr noundef %142, i32 noundef %143, i32 noundef %144, ptr noundef %145, ptr noundef %9)
  store i32 %146, ptr %6, align 4
  %147 = load i32, ptr %6, align 4
  %148 = icmp eq i32 %147, 0
  br i1 %148, label %149, label %154

149:                                              ; preds = %132
  %150 = load i32, ptr %13, align 4
  %151 = load i32, ptr %9, align 4
  %152 = icmp ne i32 %150, %151
  br i1 %152, label %153, label %154

153:                                              ; preds = %149
  store i32 113, ptr %6, align 4
  br label %154

154:                                              ; preds = %153, %149, %132
  store i32 0, ptr %7, align 4
  br label %155

155:                                              ; preds = %213, %154
  %156 = load i32, ptr %7, align 4
  %157 = load i32, ptr %9, align 4
  %158 = icmp slt i32 %156, %157
  br i1 %158, label %159, label %162

159:                                              ; preds = %155
  %160 = load i32, ptr %6, align 4
  %161 = icmp eq i32 %160, 0
  br label %162

162:                                              ; preds = %159, %155
  %163 = phi i1 [ false, %155 ], [ %161, %159 ]
  br i1 %163, label %164, label %216

164:                                              ; preds = %162
  %165 = load ptr, ptr %10, align 8
  call void @createLocalRefSpace(ptr noundef %165, i32 noundef 1)
  %166 = load ptr, ptr %14, align 8
  %167 = load i32, ptr %7, align 4
  %168 = sext i32 %167 to i64
  %169 = getelementptr inbounds %struct.jvmtiFrameInfo, ptr %166, i64 %168
  %170 = getelementptr inbounds %struct.jvmtiFrameInfo, ptr %169, i32 0, i32 0
  %171 = load ptr, ptr %170, align 8
  %172 = call i32 @methodClass(ptr noundef %171, ptr noundef %15)
  store i32 %172, ptr %6, align 4
  %173 = load i32, ptr %6, align 4
  %174 = icmp eq i32 %173, 0
  br i1 %174, label %175, label %198

175:                                              ; preds = %164
  %176 = load ptr, ptr %11, align 8
  %177 = load i32, ptr %7, align 4
  %178 = load i32, ptr %12, align 4
  %179 = add nsw i32 %177, %178
  %180 = call i64 @createFrameID(ptr noundef %176, i32 noundef %179)
  store i64 %180, ptr %16, align 8
  %181 = load ptr, ptr %5, align 8
  %182 = load i64, ptr %16, align 8
  %183 = call zeroext i16 @outStream_writeFrameID(ptr noundef %181, i64 noundef %182)
  %184 = load ptr, ptr %5, align 8
  %185 = load ptr, ptr %15, align 8
  %186 = load ptr, ptr %14, align 8
  %187 = load i32, ptr %7, align 4
  %188 = sext i32 %187 to i64
  %189 = getelementptr inbounds %struct.jvmtiFrameInfo, ptr %186, i64 %188
  %190 = getelementptr inbounds %struct.jvmtiFrameInfo, ptr %189, i32 0, i32 0
  %191 = load ptr, ptr %190, align 8
  %192 = load ptr, ptr %14, align 8
  %193 = load i32, ptr %7, align 4
  %194 = sext i32 %193 to i64
  %195 = getelementptr inbounds %struct.jvmtiFrameInfo, ptr %192, i64 %194
  %196 = getelementptr inbounds %struct.jvmtiFrameInfo, ptr %195, i32 0, i32 1
  %197 = load i64, ptr %196, align 8
  call void @writeCodeLocation(ptr noundef %184, ptr noundef %185, ptr noundef %191, i64 noundef %197)
  br label %198

198:                                              ; preds = %175, %164
  %199 = load ptr, ptr @gdata, align 8
  %200 = getelementptr inbounds %struct.BackendGlobalData, ptr %199, i32 0, i32 38
  %201 = load i32, ptr %200, align 8
  %202 = and i32 %201, 2
  %203 = icmp ne i32 %202, 0
  br i1 %203, label %204, label %205

204:                                              ; preds = %198
  call void @log_message_begin(ptr noundef @.str.20, ptr noundef @.str.17, i32 noundef 305)
  call void (ptr, ...) @log_message_end(ptr noundef @.str.18, ptr noundef @.str.21)
  br label %206

205:                                              ; preds = %198
  br label %206

206:                                              ; preds = %205, %204
  %207 = load ptr, ptr %10, align 8
  %208 = load ptr, ptr %207, align 8
  %209 = getelementptr inbounds %struct.JNINativeInterface_, ptr %208, i32 0, i32 20
  %210 = load ptr, ptr %209, align 8
  %211 = load ptr, ptr %10, align 8
  %212 = call ptr %210(ptr noundef %211, ptr noundef null)
  br label %213

213:                                              ; preds = %206
  %214 = load i32, ptr %7, align 4
  %215 = add nsw i32 %214, 1
  store i32 %215, ptr %7, align 4
  br label %155, !llvm.loop !6

216:                                              ; preds = %162
  %217 = load ptr, ptr %14, align 8
  call void @jvmtiDeallocate(ptr noundef %217)
  %218 = load i32, ptr %6, align 4
  %219 = icmp ne i32 %218, 0
  br i1 %219, label %220, label %224

220:                                              ; preds = %216
  %221 = load ptr, ptr %5, align 8
  %222 = load i32, ptr %6, align 4
  %223 = call zeroext i16 @map2jdwpError(i32 noundef %222)
  call void @outStream_setError(ptr noundef %221, i16 noundef zeroext %223)
  br label %224

224:                                              ; preds = %220, %216
  store i8 1, ptr %3, align 1
  br label %225

225:                                              ; preds = %224, %122, %109, %98, %87, %73, %50, %43, %38, %31, %24
  %226 = load i8, ptr %3, align 1
  ret i8 %226
}