; Function Attrs: nounwind uwtable
define internal noundef zeroext i8 @frames(ptr noundef %0, ptr noundef %1) #0 {
  %3 = alloca i32, align 4
  %4 = alloca i32, align 4
  %5 = alloca ptr, align 8
  %6 = tail call ptr @getEnv() #4
  %7 = tail call ptr @inStream_readThreadRef(ptr noundef %6, ptr noundef %0) #4
  %8 = tail call zeroext i16 @inStream_error(ptr noundef %0) #4
  %.not = icmp eq i16 %8, 0
  br i1 %.not, label %9, label %102

9:                                                ; preds = %2
  %10 = tail call i32 @inStream_readInt(ptr noundef %0) #4
  %11 = tail call zeroext i16 @inStream_error(ptr noundef %0) #4
  %.not68 = icmp eq i16 %11, 0
  br i1 %.not68, label %12, label %102

12:                                               ; preds = %9
  %13 = tail call i32 @inStream_readInt(ptr noundef %0) #4
  %14 = tail call zeroext i16 @inStream_error(ptr noundef %0) #4
  %.not69 = icmp eq i16 %14, 0
  br i1 %.not69, label %15, label %102

15:                                               ; preds = %12
  %16 = tail call zeroext i8 @threadControl_isDebugThread(ptr noundef %7) #4
  %.not70 = icmp eq i8 %16, 0
  br i1 %.not70, label %18, label %17

17:                                               ; preds = %15
  tail call void @outStream_setError(ptr noundef %1, i16 noundef zeroext 10) #4
  br label %102

18:                                               ; preds = %15
  %19 = tail call fastcc zeroext i8 @validateSuspendedThread(ptr noundef %1, ptr noundef %7)
  %.not71 = icmp eq i8 %19, 0
  br i1 %.not71, label %102, label %20

20:                                               ; preds = %18
  %21 = load ptr, ptr @gdata, align 8
  %22 = getelementptr inbounds i8, ptr %21, i64 528
  %23 = load i32, ptr %22, align 8
  %24 = and i32 %23, 4
  %.not72 = icmp eq i32 %24, 0
  br i1 %.not72, label %26, label %25

25:                                               ; preds = %20
  tail call void @log_message_begin(ptr noundef nonnull @.str.16, ptr noundef nonnull @.str.17, i32 noundef 250) #4
  tail call void (ptr, ...) @log_message_end(ptr noundef nonnull @.str.18, ptr noundef nonnull @.str.6) #4
  %.pre = load ptr, ptr @gdata, align 8
  br label %26

26:                                               ; preds = %20, %25
  %27 = phi ptr [ %21, %20 ], [ %.pre, %25 ]
  %28 = load ptr, ptr %27, align 8
  %29 = load ptr, ptr %28, align 8
  %30 = getelementptr inbounds i8, ptr %29, i64 120
  %31 = load ptr, ptr %30, align 8
  %32 = call i32 %31(ptr noundef nonnull %28, ptr noundef %7, ptr noundef nonnull %3) #4
  %.not73 = icmp eq i32 %32, 0
  br i1 %.not73, label %35, label %33

33:                                               ; preds = %26
  %34 = call zeroext i16 @map2jdwpError(i32 noundef %32) #4
  call void @outStream_setError(ptr noundef %1, i16 noundef zeroext %34) #4
  br label %102

35:                                               ; preds = %26
  %36 = icmp eq i32 %13, -1
  %37 = load i32, ptr %3, align 4
  %38 = sub nsw i32 %37, %10
  %.061 = select i1 %36, i32 %38, i32 %13
  %39 = icmp eq i32 %.061, 0
  br i1 %39, label %40, label %42

40:                                               ; preds = %35
  %41 = call zeroext i16 @outStream_writeInt(ptr noundef %1, i32 noundef 0) #4
  br label %102

42:                                               ; preds = %35
  %43 = icmp sgt i32 %10, -1
  %.not74 = icmp slt i32 %10, %37
  %or.cond80 = select i1 %43, i1 %.not74, i1 false
  br i1 %or.cond80, label %45, label %44

44:                                               ; preds = %42
  call void @outStream_setError(ptr noundef %1, i16 noundef zeroext 503) #4
  br label %102

45:                                               ; preds = %42
  %46 = icmp slt i32 %.061, 0
  %47 = add nuw nsw i32 %.061, %10
  %48 = icmp sgt i32 %47, %37
  %or.cond = select i1 %46, i1 true, i1 %48
  br i1 %or.cond, label %49, label %50

49:                                               ; preds = %45
  call void @outStream_setError(ptr noundef %1, i16 noundef zeroext 504) #4
  br label %102

50:                                               ; preds = %45
  %51 = call zeroext i16 @outStream_writeInt(ptr noundef %1, i32 noundef %.061) #4
  %52 = shl i32 %.061, 4
  %53 = call ptr @jvmtiAllocate(i32 noundef %52) #4
  %54 = icmp eq ptr %53, null
  br i1 %54, label %55, label %56

55:                                               ; preds = %50
  call void @outStream_setError(ptr noundef %1, i16 noundef zeroext 110) #4
  br label %102

56:                                               ; preds = %50
  %57 = load ptr, ptr @gdata, align 8
  %58 = getelementptr inbounds i8, ptr %57, i64 528
  %59 = load i32, ptr %58, align 8
  %60 = and i32 %59, 4
  %.not75 = icmp eq i32 %60, 0
  br i1 %.not75, label %62, label %61

61:                                               ; preds = %56
  call void @log_message_begin(ptr noundef nonnull @.str.16, ptr noundef nonnull @.str.17, i32 noundef 285) #4
  call void (ptr, ...) @log_message_end(ptr noundef nonnull @.str.18, ptr noundef nonnull @.str.22) #4
  %.pre86 = load ptr, ptr @gdata, align 8
  br label %62

62:                                               ; preds = %56, %61
  %63 = phi ptr [ %57, %56 ], [ %.pre86, %61 ]
  %64 = load ptr, ptr %63, align 8
  %65 = load ptr, ptr %64, align 8
  %66 = getelementptr inbounds i8, ptr %65, i64 824
  %67 = load ptr, ptr %66, align 8
  %68 = call i32 %67(ptr noundef nonnull %64, ptr noundef %7, i32 noundef %10, i32 noundef %.061, ptr noundef nonnull %53, ptr noundef nonnull %4) #4
  %69 = icmp eq i32 %68, 0
  %70 = load i32, ptr %4, align 4
  %.not76 = icmp eq i32 %.061, %70
  %71 = and i1 %69, %.not76
  br i1 %71, label %.lr.ph, label %._crit_edge.thread

._crit_edge.thread:                               ; preds = %62
  %spec.select = select i1 %.not76, i32 0, i32 113
  %.060 = select i1 %69, i32 %spec.select, i32 %68
  call void @jvmtiDeallocate(ptr noundef nonnull %53) #4
  br label %100

.lr.ph:                                           ; preds = %62, %91
  %indvars.iv = phi i64 [ %indvars.iv.next, %91 ], [ 0, %62 ]
  call void @createLocalRefSpace(ptr noundef %6, i32 noundef 1) #4
  %72 = getelementptr inbounds %struct.jvmtiFrameInfo, ptr %53, i64 %indvars.iv
  %73 = load ptr, ptr %72, align 8
  %74 = call i32 @methodClass(ptr noundef %73, ptr noundef nonnull %5) #4
  %75 = icmp eq i32 %74, 0
  br i1 %75, label %76, label %85

76:                                               ; preds = %.lr.ph
  %77 = trunc i64 %indvars.iv to i32
  %78 = add i32 %10, %77
  %79 = call i64 @createFrameID(ptr noundef %7, i32 noundef %78) #4
  %80 = call zeroext i16 @outStream_writeFrameID(ptr noundef %1, i64 noundef %79) #4
  %81 = load ptr, ptr %5, align 8
  %82 = load ptr, ptr %72, align 8
  %83 = getelementptr inbounds i8, ptr %72, i64 8
  %84 = load i64, ptr %83, align 8
  call void @writeCodeLocation(ptr noundef %1, ptr noundef %81, ptr noundef %82, i64 noundef %84) #4
  br label %85

85:                                               ; preds = %76, %.lr.ph
  %86 = load ptr, ptr @gdata, align 8
  %87 = getelementptr inbounds i8, ptr %86, i64 528
  %88 = load i32, ptr %87, align 8
  %89 = and i32 %88, 2
  %.not78 = icmp eq i32 %89, 0
  br i1 %.not78, label %91, label %90

90:                                               ; preds = %85
  call void @log_message_begin(ptr noundef nonnull @.str.20, ptr noundef nonnull @.str.17, i32 noundef 305) #4
  call void (ptr, ...) @log_message_end(ptr noundef nonnull @.str.18, ptr noundef nonnull @.str.21) #4
  br label %91

91:                                               ; preds = %85, %90
  %92 = load ptr, ptr %6, align 8
  %93 = getelementptr inbounds i8, ptr %92, i64 160
  %94 = load ptr, ptr %93, align 8
  %95 = call ptr %94(ptr noundef nonnull %6, ptr noundef null) #4
  %indvars.iv.next = add nuw nsw i64 %indvars.iv, 1
  %96 = load i32, ptr %4, align 4
  %97 = sext i32 %96 to i64
  %98 = icmp slt i64 %indvars.iv.next, %97
  %99 = and i1 %75, %98
  br i1 %99, label %.lr.ph, label %._crit_edge, !llvm.loop !6

._crit_edge:                                      ; preds = %91
  call void @jvmtiDeallocate(ptr noundef nonnull %53) #4
  br i1 %75, label %102, label %100

100:                                              ; preds = %._crit_edge.thread, %._crit_edge
  %.1.lcssa89 = phi i32 [ %.060, %._crit_edge.thread ], [ %74, %._crit_edge ]
  %101 = call zeroext i16 @map2jdwpError(i32 noundef %.1.lcssa89) #4
  call void @outStream_setError(ptr noundef %1, i16 noundef zeroext %101) #4
  br label %102

102:                                              ; preds = %._crit_edge, %100, %18, %12, %9, %2, %55, %49, %44, %40, %33, %17
  ret i8 1
}